; Function Attrs: mustprogress nounwind uwtable
define dso_local noundef i64 @_ZNK4llvm16MachObjectWriter18getFragmentAddressERKNS_11MCAssemblerEPKNS_10MCFragmentE(ptr nocapture noundef nonnull readonly align 8 dereferenceable(2032) %0, ptr noundef nonnull align 8 dereferenceable(372) %1, ptr noundef %2) local_unnamed_addr #0 align 2 {
  %4 = getelementptr inbounds nuw i8, ptr %2, i64 8
  %5 = load ptr, ptr %4, align 8
  %6 = getelementptr inbounds nuw i8, ptr %0, i64 208
  %7 = load ptr, ptr %6, align 8
  %8 = getelementptr inbounds i8, ptr %0, i64 224
  %9 = load i32, ptr %8, align 8
  %10 = icmp eq i32 %9, 0
  br i1 %10, label %_ZNK4llvm16MachObjectWriter17getSectionAddressEPKNS_9MCSectionE.exit, label %11

11:                                               ; preds = %3
  %12 = ptrtoint ptr %5 to i64
  %13 = trunc i64 %12 to i32
  %14 = lshr i32 %13, 4
  %15 = lshr i32 %13, 9
  %16 = xor i32 %14, %15
  %17 = add i32 %9, -1
  %.01618.i.i.i.i = and i32 %16, %17
  %18 = zext nneg i32 %.01618.i.i.i.i to i64
  %19 = getelementptr inbounds %"struct.llvm::detail::DenseMapPair", ptr %7, i64 %18
  %20 = load ptr, ptr %19, align 8
  %21 = icmp eq ptr %5, %20
  br i1 %21, label %_ZNK4llvm12DenseMapBaseINS_8DenseMapIPKNS_9MCSectionEmNS_12DenseMapInfoIS4_vEENS_6detail12DenseMapPairIS4_mEEEES4_mS6_S9_E6doFindIS4_EEPKS9_RKT_.exit.i.i, label %.lr.ph.i.i.i.i

.lr.ph.i.i.i.i:                                   ; preds = %11, %24
  %22 = phi ptr [ %29, %24 ], [ %20, %11 ]
  %.01620.i.i.i.i = phi i32 [ %.016.i.i.i.i, %24 ], [ %.01618.i.i.i.i, %11 ]
  %.01519.i.i.i.i = phi i32 [ %25, %24 ], [ 1, %11 ]
  %23 = icmp eq ptr %22, inttoptr (i64 -4096 to ptr)
  br i1 %23, label %_ZNK4llvm16MachObjectWriter17getSectionAddressEPKNS_9MCSectionE.exit, label %24

24:                                               ; preds = %.lr.ph.i.i.i.i
  %25 = add i32 %.01519.i.i.i.i, 1
  %26 = add i32 %.01519.i.i.i.i, %.01620.i.i.i.i
  %.016.i.i.i.i = and i32 %26, %17
  %27 = zext i32 %.016.i.i.i.i to i64
  %28 = getelementptr inbounds %"struct.llvm::detail::DenseMapPair", ptr %7, i64 %27
  %29 = load ptr, ptr %28, align 8
  %30 = icmp eq ptr %5, %29
  br i1 %30, label %_ZNK4llvm12DenseMapBaseINS_8DenseMapIPKNS_9MCSectionEmNS_12DenseMapInfoIS4_vEENS_6detail12DenseMapPairIS4_mEEEES4_mS6_S9_E6doFindIS4_EEPKS9_RKT_.exit.i.i, label %.lr.ph.i.i.i.i, !llvm.loop !11

_ZNK4llvm12DenseMapBaseINS_8DenseMapIPKNS_9MCSectionEmNS_12DenseMapInfoIS4_vEENS_6detail12DenseMapPairIS4_mEEEES4_mS6_S9_E6doFindIS4_EEPKS9_RKT_.exit.i.i: ; preds = %24, %11
  %31 = phi i64 [ %18, %11 ], [ %27, %24 ]
  %32 = getelementptr inbounds %"struct.llvm::detail::DenseMapPair", ptr %7, i64 %31, i32 0, i32 1
  %33 = load i64, ptr %32, align 8
  br label %_ZNK4llvm16MachObjectWriter17getSectionAddressEPKNS_9MCSectionE.exit

_ZNK4llvm16MachObjectWriter17getSectionAddressEPKNS_9MCSectionE.exit: ; preds = %.lr.ph.i.i.i.i, %3, %_ZNK4llvm12DenseMapBaseINS_8DenseMapIPKNS_9MCSectionEmNS_12DenseMapInfoIS4_vEENS_6detail12DenseMapPairIS4_mEEEES4_mS6_S9_E6doFindIS4_EEPKS9_RKT_.exit.i.i
  %.0.i.i = phi i64 [ %33, %_ZNK4llvm12DenseMapBaseINS_8DenseMapIPKNS_9MCSectionEmNS_12DenseMapInfoIS4_vEENS_6detail12DenseMapPairIS4_mEEEES4_mS6_S9_E6doFindIS4_EEPKS9_RKT_.exit.i.i ], [ 0, %3 ], [ 0, %.lr.ph.i.i.i.i ]
  %34 = tail call noundef i64 @_ZNK4llvm11MCAssembler17getFragmentOffsetERKNS_10MCFragmentE(ptr noundef nonnull align 8 dereferenceable(372) %1, ptr noundef nonnull align 8 dereferenceable(30) %2) #19
  %35 = add i64 %34, %.0.i.i
  ret i64 %35
}